; Function Attrs: mustprogress nounwind uwtable
define internal fastcc void @_ZN4llvm15SmallVectorImplIN12_GLOBAL__N_111ConditionTyEE12emplace_backIJNS_7CmpInst9PredicateERPNS_5ValueEPNS_8ConstantEEEERS2_DpOT_(ptr noundef nonnull align 8 dereferenceable(16) %0, ptr nocapture noundef nonnull readonly align 4 dereferenceable(4) %1, ptr nocapture noundef nonnull readonly align 8 dereferenceable(8) %2, ptr nocapture noundef nonnull readonly align 8 dereferenceable(8) %3) unnamed_addr #0 align 2 {
  %5 = alloca %"struct.(anonymous namespace)::ConditionTy", align 8
  %6 = tail call noundef i64 @_ZNK4llvm15SmallVectorBaseIjE4sizeEv(ptr noundef nonnull align 8 dereferenceable(16) %0) #21
  %7 = tail call noundef i64 @_ZNK4llvm15SmallVectorBaseIjE8capacityEv(ptr noundef nonnull align 8 dereferenceable(16) %0) #21
  %.not = icmp ult i64 %6, %7
  br i1 %.not, label %32, label %8

8:                                                ; preds = %4
  %.val = load i32, ptr %1, align 4
  %.val8 = load ptr, ptr %2, align 8
  %.val9 = load ptr, ptr %3, align 8
  call void @llvm.lifetime.start.p0(i64 24, ptr nonnull %5)
  store i32 %.val, ptr %5, align 8
  %9 = getelementptr inbounds nuw i8, ptr %5, i64 8
  store ptr %.val8, ptr %9, align 8
  %10 = getelementptr inbounds nuw i8, ptr %5, i64 16
  store ptr %.val9, ptr %10, align 8
  %11 = tail call noundef i64 @_ZNK4llvm15SmallVectorBaseIjE4sizeEv(ptr noundef nonnull align 8 dereferenceable(16) %0) #21
  %12 = add i64 %11, 1
  %13 = tail call noundef i64 @_ZNK4llvm15SmallVectorBaseIjE8capacityEv(ptr noundef nonnull align 8 dereferenceable(16) %0) #21
  %.not.i.i.i.i = icmp ugt i64 %12, %13
  %.val.i.pre3.i.i = load ptr, ptr %0, align 8
  br i1 %.not.i.i.i.i, label %14, label %_ZN4llvm23SmallVectorTemplateBaseIN12_GLOBAL__N_111ConditionTyELb1EE18growAndEmplaceBackIJNS_7CmpInst9PredicateERPNS_5ValueEPNS_8ConstantEEEERS2_DpOT_.exit

14:                                               ; preds = %8
  %15 = tail call noundef i64 @_ZNK4llvm15SmallVectorBaseIjE4sizeEv(ptr noundef nonnull align 8 dereferenceable(16) %0) #21
  %16 = getelementptr inbounds %"struct.(anonymous namespace)::ConditionTy", ptr %.val.i.pre3.i.i, i64 %15
  %17 = icmp uge ptr %5, %.val.i.pre3.i.i
  %18 = icmp ult ptr %5, %16
  %spec.select.i.i.i.i.i.i = and i1 %17, %18
  br i1 %spec.select.i.i.i.i.i.i, label %21, label %19

19:                                               ; preds = %14
  %20 = getelementptr inbounds i8, ptr %0, i64 16
  call void @_ZN4llvm15SmallVectorBaseIjE8grow_podEPvmm(ptr noundef nonnull align 8 dereferenceable(16) %0, ptr noundef nonnull %20, i64 noundef %12, i64 noundef 24) #21
  %.val.i.pre.i.i = load ptr, ptr %0, align 8
  br label %_ZN4llvm23SmallVectorTemplateBaseIN12_GLOBAL__N_111ConditionTyELb1EE18growAndEmplaceBackIJNS_7CmpInst9PredicateERPNS_5ValueEPNS_8ConstantEEEERS2_DpOT_.exit

21:                                               ; preds = %14
  %.val18.i.i.i.i = load ptr, ptr %0, align 8
  %22 = ptrtoint ptr %5 to i64
  %23 = ptrtoint ptr %.val18.i.i.i.i to i64
  %24 = sub i64 %22, %23
  %25 = getelementptr inbounds i8, ptr %0, i64 16
  call void @_ZN4llvm15SmallVectorBaseIjE8grow_podEPvmm(ptr noundef nonnull align 8 dereferenceable(16) %0, ptr noundef nonnull %25, i64 noundef %12, i64 noundef 24) #21
  %.val.i.i.i.i = load ptr, ptr %0, align 8
  %26 = getelementptr inbounds i8, ptr %.val.i.i.i.i, i64 %24
  br label %_ZN4llvm23SmallVectorTemplateBaseIN12_GLOBAL__N_111ConditionTyELb1EE18growAndEmplaceBackIJNS_7CmpInst9PredicateERPNS_5ValueEPNS_8ConstantEEEERS2_DpOT_.exit

_ZN4llvm23SmallVectorTemplateBaseIN12_GLOBAL__N_111ConditionTyELb1EE18growAndEmplaceBackIJNS_7CmpInst9PredicateERPNS_5ValueEPNS_8ConstantEEEERS2_DpOT_.exit: ; preds = %8, %19, %21
  %.val.i.i.i = phi ptr [ %.val.i.pre3.i.i, %8 ], [ %.val.i.i.i.i, %21 ], [ %.val.i.pre.i.i, %19 ]
  %.016.i.i.i.i = phi ptr [ %5, %8 ], [ %26, %21 ], [ %5, %19 ]
  %27 = call noundef i64 @_ZNK4llvm15SmallVectorBaseIjE4sizeEv(ptr noundef nonnull align 8 dereferenceable(16) %0) #21
  %28 = getelementptr inbounds %"struct.(anonymous namespace)::ConditionTy", ptr %.val.i.i.i, i64 %27
  call void @llvm.memcpy.p0.p0.i64(ptr noundef nonnull align 1 dereferenceable(24) %28, ptr noundef nonnull align 8 dereferenceable(24) %.016.i.i.i.i, i64 24, i1 false)
  %29 = call noundef i64 @_ZNK4llvm15SmallVectorBaseIjE4sizeEv(ptr noundef nonnull align 8 dereferenceable(16) %0) #21
  %30 = add i64 %29, 1
  call void @_ZN4llvm15SmallVectorBaseIjE8set_sizeEm(ptr noundef nonnull align 8 dereferenceable(16) %0, i64 noundef %30) #21
  %31 = call noundef i64 @_ZNK4llvm15SmallVectorBaseIjE4sizeEv(ptr noundef nonnull align 8 dereferenceable(16) %0) #21
  call void @llvm.lifetime.end.p0(i64 24, ptr nonnull %5)
  br label %43

32:                                               ; preds = %4
  %.val.i = load ptr, ptr %0, align 8
  %33 = tail call noundef i64 @_ZNK4llvm15SmallVectorBaseIjE4sizeEv(ptr noundef nonnull align 8 dereferenceable(16) %0) #21
  %34 = getelementptr inbounds %"struct.(anonymous namespace)::ConditionTy", ptr %.val.i, i64 %33
  %35 = load i32, ptr %1, align 4
  %36 = load ptr, ptr %2, align 8
  %37 = load ptr, ptr %3, align 8
  store i32 %35, ptr %34, align 8
  %38 = getelementptr inbounds nuw i8, ptr %34, i64 8
  store ptr %36, ptr %38, align 8
  %39 = getelementptr inbounds nuw i8, ptr %34, i64 16
  store ptr %37, ptr %39, align 8
  %40 = tail call noundef i64 @_ZNK4llvm15SmallVectorBaseIjE4sizeEv(ptr noundef nonnull align 8 dereferenceable(16) %0) #21
  %41 = add i64 %40, 1
  tail call void @_ZN4llvm15SmallVectorBaseIjE8set_sizeEm(ptr noundef nonnull align 8 dereferenceable(16) %0, i64 noundef %41) #21
  %42 = tail call noundef i64 @_ZNK4llvm15SmallVectorBaseIjE4sizeEv(ptr noundef nonnull align 8 dereferenceable(16) %0) #21
  br label %43

43:                                               ; preds = %32, %_ZN4llvm23SmallVectorTemplateBaseIN12_GLOBAL__N_111ConditionTyELb1EE18growAndEmplaceBackIJNS_7CmpInst9PredicateERPNS_5ValueEPNS_8ConstantEEEERS2_DpOT_.exit
  ret void
}